(lp0
<<<<<<< Updated upstream
I64
aI55
aI22
aI64
aI76
aI56
aI39
aI46
aI23
aI10
aI68
aI57
aI71
aI33
aI90
aI59
aI38
aI32
aI70
aI43
aI55
aI35
aI41
aI83
aI76
aI23
aI33
aI84
aI62
aI35
aI51
aI11
aI93
aI89
aI67
aI52
aI63
aI89
aI100
aI90
aI11
aI64
aI10
aI2
aI17
aI89
aI71
aI93
aI52
aI52
aI73
aI34
aI24
aI5
aI27
aI86
aI60
aI67
aI16
aI8
aI22
aI51
aI33
aI38
aI69
aI54
aI99
aI10
aI9
aI20
aI39
aI88
aI63
aI62
aI24
aI87
aI63
aI11
aI47
aI39
aI32
aI9
aI93
aI50
aI3
aI69
aI70
aI14
aI19
aI8
aI74
aI79
aI8
aI84
aI27
aI6
aI96
aI4
aI77
=======
I10
aI62
aI36
aI46
aI65
aI2
aI87
aI52
aI24
>>>>>>> Stashed changes
a.